target datalayout = "e-m:e-p270:32:32-p271:32:32-p272:64:64-i64:64-i128:128-f80:128-n8:16:32:64-S128"
target triple = "x86_64-pc-linux-gnu"

%struct._packet_info = type { ptr, ptr, i32, i32, %struct.nstime_t, %struct.nstime_t, %struct.nstime_t, i8, ptr, ptr, ptr, ptr, %struct._address, %struct._address, %struct._address, %struct._address, %struct._address, %struct._address, i32, ptr, i8, [3 x i8], %struct.anon, i32, i32, i32, i32, ptr, i8, ptr, ptr, i16, i16, i32, i32, i16, i32, i32, ptr, ptr, ptr, i8, i8, i16, i16, i16, i32, i16, i16, ptr, ptr, ptr, ptr, ptr, i32, i32 }
%struct.nstime_t = type { i64, i32 }
%struct._address = type { i32, i32, ptr, ptr }
%struct.anon = type { i8, [3 x i8] }
%struct._drda_pdu_info_t = type { i32, i32, i32, i32 }

@hf_drda_ccsid = internal global i32 0, align 4

; Function Attrs: nounwind null_pointer_is_valid sspstrong uwtable
define internal i32 @ccsid_to_encoding(i32 noundef %0) #8 {
  %2 = alloca i32, align 4
  %3 = alloca i32, align 4
  store i32 %0, ptr %3, align 4
  %4 = load i32, ptr %3, align 4
  switch i32 %4, label %13 [
    i32 0, label %5
    i32 500, label %5
    i32 65535, label %5
    i32 37, label %6
    i32 367, label %7
    i32 819, label %8
    i32 850, label %9
    i32 1200, label %10
    i32 1202, label %11
    i32 1208, label %12
  ]

5:                                                ; preds = %1, %1, %1
  store i32 96, ptr %2, align 4
  br label %14

6:                                                ; preds = %1
  store i32 56, ptr %2, align 4
  br label %14

7:                                                ; preds = %1
  store i32 0, ptr %2, align 4
  br label %14

8:                                                ; preds = %1
  store i32 10, ptr %2, align 4
  br label %14

9:                                                ; preds = %1
  store i32 0, ptr %2, align 4
  br label %14

10:                                               ; preds = %1
  store i32 4, ptr %2, align 4
  br label %14

11:                                               ; preds = %1
  store i32 -2147483644, ptr %2, align 4
  br label %14

12:                                               ; preds = %1
  store i32 2, ptr %2, align 4
  br label %14

13:                                               ; preds = %1
  store i32 2, ptr %2, align 4
  br label %14

14:                                               ; preds = %13, %12, %11, %10, %9, %8, %7, %6, %5
  %15 = load i32, ptr %2, align 4
  ret i32 %15
}

; Function Attrs: null_pointer_is_valid sspstrong uwtable
define internal i32 @dissect_drda_ccsid(ptr noundef %0, ptr noundef %1, ptr noundef %2, ptr noundef %3) #0 {
  %5 = alloca ptr, align 8
  %6 = alloca ptr, align 8
  %7 = alloca ptr, align 8
  %8 = alloca ptr, align 8
  %9 = alloca ptr, align 8
  %10 = alloca i32, align 4
  store ptr %0, ptr %5, align 8
  store ptr %1, ptr %6, align 8
  store ptr %2, ptr %7, align 8
  store ptr %3, ptr %8, align 8
  call void @llvm.lifetime.start.p0(i64 8, ptr %9) #9
  %11 = load ptr, ptr %8, align 8
  store ptr %11, ptr %9, align 8
  call void @llvm.lifetime.start.p0(i64 4, ptr %10) #9
  %12 = load ptr, ptr %7, align 8
  %13 = load i32, ptr @hf_drda_ccsid, align 4
  %14 = load ptr, ptr %5, align 8
  %15 = call ptr @proto_tree_add_item_ret_uint(ptr noundef %12, i32 noundef %13, ptr noundef %14, i32 noundef 0, i32 noundef 2, i32 noundef 0, ptr noundef %10)
  %16 = load ptr, ptr %6, align 8
  %17 = getelementptr inbounds nuw %struct._packet_info, ptr %16, i32 0, i32 26
  %18 = load i32, ptr %17, align 4
  switch i32 %18, label %29 [
    i32 4508, label %19
    i32 4510, label %24
  ]

19:                                               ; preds = %4
  %20 = load i32, ptr %10, align 4
  %21 = call i32 @ccsid_to_encoding(i32 noundef %20)
  %22 = load ptr, ptr %9, align 8
  %23 = getelementptr inbounds nuw %struct._drda_pdu_info_t, ptr %22, i32 0, i32 2
  store i32 %21, ptr %23, align 4
  br label %30

24:                                               ; preds = %4
  %25 = load i32, ptr %10, align 4
  %26 = call i32 @ccsid_to_encoding(i32 noundef %25)
  %27 = load ptr, ptr %9, align 8
  %28 = getelementptr inbounds nuw %struct._drda_pdu_info_t, ptr %27, i32 0, i32 3
  store i32 %26, ptr %28, align 4
  br label %30

29:                                               ; preds = %4
  br label %30

30:                                               ; preds = %29, %24, %19
  call void @llvm.lifetime.end.p0(i64 4, ptr %10) #9
  call void @llvm.lifetime.end.p0(i64 8, ptr %9) #9
  ret i32 2
}