; Function Attrs: null_pointer_is_valid sspstrong uwtable
define internal noundef i32 @dissect_drda_ccsid(ptr noundef %0, ptr noundef readonly captures(none) %1, ptr noundef %2, ptr noundef writeonly captures(none) %3) #0 {
  %5 = alloca i32, align 4
  call void @llvm.lifetime.start.p0(i64 4, ptr nonnull %5) #8
  %6 = load i32, ptr @hf_drda_ccsid, align 4
  %7 = call ptr @proto_tree_add_item_ret_uint(ptr noundef %2, i32 noundef %6, ptr noundef %0, i32 noundef 0, i32 noundef 2, i32 noundef 0, ptr noundef nonnull %5)
  %8 = getelementptr inbounds nuw i8, ptr %1, i64 292
  %9 = load i32, ptr %8, align 4
  switch i32 %9, label %27 [
    i32 4508, label %10
    i32 4510, label %18
  ]

10:                                               ; preds = %4
  %11 = load i32, ptr %5, align 4
  switch i32 %11, label %17 [
    i32 0, label %.sink.split
    i32 500, label %.sink.split
    i32 65535, label %.sink.split
    i32 37, label %12
    i32 367, label %13
    i32 819, label %14
    i32 850, label %13
    i32 1200, label %15
    i32 1202, label %16
  ]

12:                                               ; preds = %10
  br label %.sink.split

13:                                               ; preds = %10, %10
  br label %.sink.split

14:                                               ; preds = %10
  br label %.sink.split

15:                                               ; preds = %10
  br label %.sink.split

16:                                               ; preds = %10
  br label %.sink.split

17:                                               ; preds = %10
  br label %.sink.split

18:                                               ; preds = %4
  %19 = load i32, ptr %5, align 4
  switch i32 %19, label %25 [
    i32 0, label %.sink.split
    i32 500, label %.sink.split
    i32 65535, label %.sink.split
    i32 37, label %20
    i32 367, label %21
    i32 819, label %22
    i32 850, label %21
    i32 1200, label %23
    i32 1202, label %24
  ]

20:                                               ; preds = %18
  br label %.sink.split

21:                                               ; preds = %18, %18
  br label %.sink.split

22:                                               ; preds = %18
  br label %.sink.split

23:                                               ; preds = %18
  br label %.sink.split

24:                                               ; preds = %18
  br label %.sink.split

25:                                               ; preds = %18
  br label %.sink.split

.sink.split:                                      ; preds = %25, %24, %23, %22, %21, %20, %18, %18, %18, %17, %16, %15, %14, %13, %12, %10, %10, %10
  %.sink8 = phi i64 [ 8, %10 ], [ 8, %10 ], [ 8, %10 ], [ 8, %12 ], [ 8, %13 ], [ 8, %14 ], [ 8, %15 ], [ 8, %16 ], [ 8, %17 ], [ 12, %18 ], [ 12, %18 ], [ 12, %18 ], [ 12, %20 ], [ 12, %21 ], [ 12, %22 ], [ 12, %23 ], [ 12, %24 ], [ 12, %25 ]
  %.0.i6.sink = phi i32 [ 96, %10 ], [ 96, %10 ], [ 96, %10 ], [ 56, %12 ], [ 0, %13 ], [ 10, %14 ], [ 4, %15 ], [ -2147483644, %16 ], [ 2, %17 ], [ 96, %18 ], [ 96, %18 ], [ 96, %18 ], [ 56, %20 ], [ 0, %21 ], [ 10, %22 ], [ 4, %23 ], [ -2147483644, %24 ], [ 2, %25 ]
  %26 = getelementptr inbounds nuw i8, ptr %3, i64 %.sink8
  store i32 %.0.i6.sink, ptr %26, align 4
  br label %27

27:                                               ; preds = %.sink.split, %4
  call void @llvm.lifetime.end.p0(i64 4, ptr nonnull %5) #8
  ret i32 2
}